; Function Attrs: nounwind uwtable
define dso_local ptr @PyDict_GetItemString(ptr noundef readonly captures(none) %0, ptr noundef %1) local_unnamed_addr #0 {
  %3 = tail call ptr @PyUnicode_FromString(ptr noundef %1) #23
  %4 = icmp eq ptr %3, null
  br i1 %4, label %5, label %6

5:                                                ; preds = %2
  tail call void (ptr, ...) @PyErr_FormatUnraisable(ptr noundef nonnull @.str.26) #23
  br label %Py_DECREF.exit

6:                                                ; preds = %2
  %7 = tail call fastcc ptr @dict_getitem(ptr noundef %0, ptr noundef nonnull %3, ptr noundef nonnull @.str.26)
  %8 = load i32, ptr %3, align 8, !tbaa !41
  %.not.i = icmp sgt i32 %8, -1
  br i1 %.not.i, label %9, label %Py_DECREF.exit

9:                                                ; preds = %6
  %10 = add nsw i32 %8, -1
  store i32 %10, ptr %3, align 8, !tbaa !41
  %11 = icmp eq i32 %10, 0
  br i1 %11, label %12, label %Py_DECREF.exit

12:                                               ; preds = %9
  tail call void @_Py_Dealloc(ptr noundef nonnull %3) #23
  br label %Py_DECREF.exit

Py_DECREF.exit:                                   ; preds = %12, %9, %6, %5
  %.0 = phi ptr [ null, %5 ], [ %7, %6 ], [ %7, %9 ], [ %7, %12 ]
  ret ptr %.0
}